(lp0
(I19
I10
tp1
a(I20
I11
tp2
a(I22
I11
tp3
a(I24
I15
tp4
a(I24
I11
tp5
a(I25
I12
tp6
a(I26
I13
tp7
a(I23
I16
tp8
a(I24
I10
tp9
a(I24
I14
tp10
a(I21
I9
tp11
a(I24
I13
tp12
a(I19
I9
tp13
a(I23
I11
tp14
a(I17
I11
tp15
a(I21
I11
tp16
a(I16
I14
tp17
a(I17
I16
tp18
a(I18
I12
tp19
a(I19
I18
tp20
a(I18
I14
tp21
a(I22
I18
tp22
a(I18
I16
tp23
a(I25
I17
tp24
a(I20
I17
tp25
a(I26
I15
tp26
a(I22
I17
tp27
a(I25
I16
tp28
a(I26
I14
tp29
a(I25
I11
tp30
a(I23
I9
tp31
a(I20
I8
tp32
a(I18
I9
tp33
a(I16
I10
tp34
a(I16
I17
tp35
a(I14
I9
tp36
a(I14
I17
tp37
a(I12
I9
tp38
a(I12
I17
tp39
a(I11
I9
tp40
a(I10
I17
tp41
a(I12
I8
tp42
a(I8
I13
tp43
a(I15
I7
tp44
a(I7
I9
tp45
a(I15
I6
tp46
a(I7
I7
tp47
a(I14
I3
tp48
a(I7
I5
tp49
a(I16
I5
tp50
a(I9
I2
tp51
a(I16
I7
tp52
a(I13
I1
tp53
a(I18
I6
tp54
a(I14
I0
tp55
a(I20
I5
tp56
a(I16
I0
tp57
a(I21
I5
tp58
a(I18
I-1
tp59
a(I21
I8
tp60
a(I21
I0
tp61
a(I19
I11
tp62
a(I24
I3
tp63
a(I15
I10
tp64
a(I23
I7
tp65
a(I11
I8
tp66
a(I10
I4
tp67
a(I16
I11
tp68
a(I12
I0
tp69
a(I10
I9
tp70
a(I9
I8
tp71
a(I8
I-1
tp72
a(I7
I8
tp73
a.