(lp0
(I17
I22
tp1
a(I18
I20
tp2
a(I20
I21
tp3
a(I21
I20
tp4
a(I22
I15
tp5
a(I20
I14
tp6
a(I20
I12
tp7
a(I21
I11
tp8
a(I15
I11
tp9
a(I18
I4
tp10
a(I22
I16
tp11
a(I20
I16
tp12
a(I22
I19
tp13
a(I18
I23
tp14
a(I15
I21
tp15
a(I14
I23
tp16
a(I14
I22
tp17
a(I13
I22
tp18
a(I14
I24
tp19
a(I19
I22
tp20
a(I19
I19
tp21
a(I20
I19
tp22
a(I22
I20
tp23
a(I25
I20
tp24
a(I19
I17
tp25
a(I26
I21
tp26
a(I19
I23
tp27
a(I18
I22
tp28
a(I16
I21
tp29
a(I15
I24
tp30
a(I7
I19
tp31
a(I8
I17
tp32
a(I9
I16
tp33
a(I8
I14
tp34
a(I8
I15
tp35
a(I9
I23
tp36
a(I12
I22
tp37
a(I12
I23
tp38
a(I13
I26
tp39
a(I17
I20
tp40
a.