(lp0
(I14
I18
tp1
a(I14
I19
tp2
a(I14
I20
tp3
a(I14
I21
tp4
a(I13
I21
tp5
a(I12
I21
tp6
a(I11
I21
tp7
a(I11
I22
tp8
a(I11
I23
tp9
a(I11
I24
tp10
a(I11
I25
tp11
a(I11
I26
tp12
a(I11
I27
tp13
a(I11
I28
tp14
a(I11
I29
tp15
a(I11
I30
tp16
a(I11
I31
tp17
a(I11
I32
tp18
a(I11
I33
tp19
a(I11
I34
tp20
a(I11
I35
tp21
a(I11
I36
tp22
a(I11
I37
tp23
a(I11
I38
tp24
a(I11
I39
tp25
a(I11
I40
tp26
a(I11
I41
tp27
a(I11
I42
tp28
a(I11
I43
tp29
a(I11
I44
tp30
a(I11
I45
tp31
a(I11
I46
tp32
a(I11
I47
tp33
a(I11
I48
tp34
a(I11
I49
tp35
a(I12
I49
tp36
a(I13
I49
tp37
a(I14
I49
tp38
a(I15
I49
tp39
a.