(lp0
(lp1
F150.0
aF150.0
aa(lp2
F145.1
aF150.2
aa(lp3
F141.5
aF150.5
aa(lp4
F137.3
aF151.1
aa(lp5
F141.8
aF150.5
aa(lp6
F149.2
aF145.4
aa(lp7
F151.8
aF132.6
aa(lp8
F149.5
aF106.9
aa(lp9
F145.7
aF87.3
aa(lp10
F145.6
aF66.1
aa(lp11
F151.3
aF54.1
aa(lp12
F164.5
aF42.4
aa(lp13
F175.3
aF39.1
aa(lp14
F195.6
aF35.5
aa(lp15
F214.0
aF33.5
aa(lp16
F231.2
aF37.8
aa(lp17
F248.2
aF42.6
aa(lp18
F271.4
aF54.5
aa(lp19
F289.0
aF67.6
aa(lp20
F300.9
aF81.0
aa(lp21
F319.5
aF94.9
aa(lp22
F332.9
aF101.7
aa(lp23
F348.3
aF115.4
aa(lp24
F362.6
aF132.3
aa(lp25
F375.3
aF155.9
aa(lp26
F378.7
aF169.1
aa(lp27
F381.2
aF182.5
aa(lp28
F376.9
aF196.2
aa(lp29
F368.6
aF206.6
aa(lp30
F365.0
aF218.2
aa(lp31
F370.6
aF227.9
aa(lp32
F382.3
aF230.6
aa(lp33
F385.8
aF229.6
aa(lp34
F382.9
aF231.6
aa(lp35
F380.4
aF233.2
aa(lp36
F392.2
aF225.0
aa(lp37
F404.5
aF216.5
aa(lp38
F406.8
aF203.7
aa(lp39
F407.5
aF183.9
aa(lp40
F417.6
aF157.3
aa(lp41
F427.9
aF138.4
aa(lp42
F441.6
aF127.9
aa(lp43
F458.3
aF123.9
aa(lp44
F478.7
aF131.6
aa(lp45
F499.5
aF144.6
aa(lp46
F516.0
aF150.7
aa(lp47
F519.0
aF150.6
aa(lp48
F512.8
aF150.1
aa(lp49
F506.2
aF150.1
aa(lp50
F528.1
aF149.7
aa(lp51
F548.3
aF150.3
aa(lp52
F540.3
aF148.4
aa(lp53
F532.7
aF146.3
aa(lp54
F548.5
aF150.8
aa(lp55
F564.9
aF153.2
aa(lp56
F569.6
aF151.7
aa(lp57
F565.7
aF155.2
aa(lp58
F561.7
aF159.9
aa(lp59
F568.4
aF152.8
aa(lp60
F577.7
aF143.8
aa(lp61
F577.8
aF131.7
aa(lp62
F573.9
aF115.6
aa(lp63
F573.9
aF104.5
aa.