(lp0
(lp1
F150.0
aF150.0
aa(lp2
F164.2
aF149.0
aa(lp3
F172.1
aF140.6
aa(lp4
F170.1
aF126.6
aa(lp5
F162.1
aF106.9
aa(lp6
F155.4
aF79.3
aa(lp7
F152.4
aF56.6
aa(lp8
F146.1
aF38.8
aa(lp9
F136.1
aF22.4
aa(lp10
F123.4
aF11.1
aa(lp11
F110.8
aF8.0
aa(lp12
F96.0
aF14.1
aa(lp13
F85.1
aF24.4
aa(lp14
F67.0
aF32.3
aa(lp15
F52.9
aF28.9
aa(lp16
F30.5
aF20.7
aa(lp17
F7.4
aF11.5
aa(lp18
F-14.6
aF3.9
aa(lp19
F-37.4
aF-5.0
aa(lp20
F-51.9
aF-8.8
aa(lp21
F-71.9
aF-8.8
aa(lp22
F-90.8
aF-12.7
aa(lp23
F-96.4
aF-17.1
aa(lp24
F-100.2
aF-28.4
aa(lp25
F-100.3
aF-38.2
aa(lp26
F-91.6
aF-54.0
aa(lp27
F-82.1
aF-60.4
aa(lp28
F-79.7
aF-61.6
aa(lp29
F-82.4
aF-57.6
aa(lp30
F-91.0
aF-44.0
aa(lp31
F-90.5
aF-45.6
aa(lp32
F-89.0
aF-54.6
aa(lp33
F-87.4
aF-61.6
aa(lp34
F-84.5
aF-66.7
aa(lp35
F-81.2
aF-70.3
aa(lp36
F-75.3
aF-79.5
aa(lp37
F-69.1
aF-93.6
aa(lp38
F-73.5
aF-107.8
aa(lp39
F-92.9
aF-114.3
aa(lp40
F-109.9
aF-112.6
aa(lp41
F-120.8
aF-103.1
aa(lp42
F-118.3
aF-87.5
aa(lp43
F-107.7
aF-78.6
aa(lp44
F-95.1
aF-81.8
aa(lp45
F-90.2
aF-94.4
aa(lp46
F-97.2
aF-105.3
aa(lp47
F-114.1
aF-109.4
aa(lp48
F-123.3
aF-100.7
aa(lp49
F-122.6
aF-88.7
aa(lp50
F-111.4
aF-81.1
aa(lp51
F-90.9
aF-83.0
aa(lp52
F-66.5
aF-87.8
aa(lp53
F-56.2
aF-101.3
aa(lp54
F-56.5
aF-118.3
aa(lp55
F-66.1
aF-134.8
aa(lp56
F-78.3
aF-136.6
aa(lp57
F-87.8
aF-127.4
aa(lp58
F-84.2
aF-112.3
aa(lp59
F-69.1
aF-108.0
aa(lp60
F-49.6
aF-111.9
aa(lp61
F-26.0
aF-118.7
aa(lp62
F-2.1
aF-125.3
aa(lp63
F27.3
aF-133.1
aa(lp64
F40.2
aF-132.4
aa(lp65
F49.4
aF-130.2
aa(lp66
F58.5
aF-119.4
aa(lp67
F58.4
aF-108.0
aa(lp68
F46.1
aF-87.2
aa(lp69
F33.1
aF-67.2
aa(lp70
F23.3
aF-54.2
aa(lp71
F9.0
aF-48.5
aa(lp72
F-11.3
aF-46.5
aa(lp73
F-22.5
aF-48.6
aa(lp74
F-37.1
aF-50.5
aa(lp75
F-51.8
aF-54.8
aa(lp76
F-66.5
aF-53.2
aa(lp77
F-82.2
aF-43.1
aa(lp78
F-84.0
aF-31.1
aa(lp79
F-75.8
aF-21.9
aa(lp80
F-54.8
aF-19.7
aa(lp81
F-41.8
aF-13.7
aa(lp82
F-19.6
aF-0.4
aa(lp83
F-5.4
aF5.7
aa(lp84
F14.4
aF1.5
aa(lp85
F30.1
aF-5.4
aa(lp86
F53.5
aF-21.1
aa(lp87
F77.7
aF-30.1
aa(lp88
F95.5
aF-34.2
aa(lp89
F112.9
aF-49.0
aa(lp90
F126.2
aF-62.0
aa(lp91
F138.2
aF-81.5
aa(lp92
F137.7
aF-94.2
aa(lp93
F131.9
aF-108.1
aa(lp94
F119.6
aF-118.4
aa(lp95
F101.8
aF-123.6
aa(lp96
F85.8
aF-132.7
aa(lp97
F82.1
aF-144.8
aa(lp98
F88.4
aF-155.6
aa(lp99
F100.1
aF-160.9
aa(lp100
F113.1
aF-158.4
aa(lp101
F127.2
aF-150.1
aa(lp102
F146.5
aF-138.3
aa(lp103
F157.9
aF-137.7
aa(lp104
F165.3
aF-143.9
aa(lp105
F164.7
aF-142.4
aa(lp106
F163.1
aF-138.4
aa(lp107
F162.5
aF-137.6
aa(lp108
F162.7
aF-143.4
aa(lp109
F165.0
aF-155.3
aa(lp110
F169.1
aF-164.5
aa(lp111
F175.5
aF-178.2
aa(lp112
F180.5
aF-195.7
aa(lp113
F177.8
aF-209.0
aa(lp114
F173.4
aF-215.1
aa(lp115
F163.6
aF-220.2
aa(lp116
F152.7
aF-231.0
aa(lp117
F144.5
aF-243.4
aa(lp118
F137.6
aF-270.3
aa(lp119
F140.3
aF-287.4
aa(lp120
F156.8
aF-301.3
aa(lp121
F173.8
aF-313.8
aa(lp122
F184.5
aF-313.6
aa(lp123
F195.5
aF-305.7
aa(lp124
F197.0
aF-292.8
aa(lp125
F205.1
aF-277.9
aa(lp126
F214.3
aF-275.1
aa(lp127
F225.0
aF-280.5
aa(lp128
F235.8
aF-298.9
aa(lp129
F246.5
aF-311.2
aa(lp130
F250.1
aF-315.8
aa(lp131
F264.7
aF-318.8
aa(lp132
F274.4
aF-310.7
aa(lp133
F284.5
aF-307.5
aa(lp134
F295.8
aF-314.3
aa(lp135
F297.3
aF-326.6
aa(lp136
F299.0
aF-322.3
aa(lp137
F300.6
aF-318.0
aa(lp138
F297.5
aF-327.6
aa(lp139
F283.5
aF-341.3
aa(lp140
F269.3
aF-357.1
aa(lp141
F253.5
aF-370.4
aa(lp142
F245.6
aF-381.3
aa(lp143
F241.0
aF-390.6
aa(lp144
F230.5
aF-403.6
aa(lp145
F220.2
aF-408.5
aa(lp146
F206.1
aF-404.7
aa(lp147
F198.7
aF-395.5
aa(lp148
F199.8
aF-384.4
aa(lp149
F210.9
aF-375.6
aa(lp150
F226.3
aF-369.4
aa(lp151
F238.6
aF-358.7
aa(lp152
F241.4
aF-345.2
aa(lp153
F234.0
aF-334.1
aa(lp154
F230.8
aF-322.1
aa(lp155
F237.5
aF-312.1
aa(lp156
F257.1
aF-312.8
aa(lp157
F262.6
aF-321.7
aa(lp158
F260.6
aF-336.5
aa(lp159
F255.8
aF-352.5
aa(lp160
F259.4
aF-371.2
aa(lp161
F266.8
aF-386.4
aa(lp162
F271.6
aF-391.7
aa(lp163
F283.5
aF-395.0
aa(lp164
F303.0
aF-393.8
aa(lp165
F311.7
aF-392.3
aa(lp166
F329.0
aF-388.9
aa(lp167
F345.7
aF-386.0
aa(lp168
F355.8
aF-392.6
aa(lp169
F357.1
aF-394.5
aa(lp170
F355.3
aF-386.6
aa(lp171
F354.5
aF-381.4
aa(lp172
F352.7
aF-389.6
aa(lp173
F343.9
aF-402.6
aa(lp174
F341.5
aF-407.2
aa(lp175
F337.3
aF-413.4
aa(lp176
F330.7
aF-421.5
aa(lp177
F321.0
aF-435.0
aa(lp178
F307.9
aF-450.4
aa(lp179
F297.6
aF-465.6
aa(lp180
F281.7
aF-480.1
aa(lp181
F264.3
aF-490.0
aa.