(lp0
(I16
I15
tp1
a(I15
I15
tp2
a(I16
I17
tp3
a(I16
I16
tp4
a(I16
I14
tp5
a(I21
I8
tp6
a(I19
I9
tp7
a(I20
I14
tp8
a(I20
I18
tp9
a(I22
I12
tp10
a(I23
I19
tp11
a(I24
I11
tp12
a(I23
I17
tp13
a(I26
I17
tp14
a(I26
I16
tp15
a(I32
I11
tp16
a(I31
I11
tp17
a(I28
I17
tp18
a(I32
I12
tp19
a(I27
I16
tp20
a(I33
I12
tp21
a(I29
I18
tp22
a(I33
I13
tp23
a(I30
I18
tp24
a(I31
I18
tp25
a(I32
I6
tp26
a(I32
I7
tp27
a(I34
I13
tp28
a(I32
I18
tp29
a(I35
I7
tp30
a(I32
I19
tp31
a(I33
I19
tp32
a(I36
I7
tp33
a(I34
I14
tp34
a(I33
I20
tp35
a(I34
I8
tp36
a(I37
I13
tp37
a(I35
I20
tp38
a(I33
I11
tp39
a(I34
I15
tp40
a(I34
I10
tp41
a(I32
I10
tp42
a(I35
I13
tp43
a(I34
I9
tp44
a(I34
I12
tp45
a(I33
I9
tp46
a(I33
I10
tp47
a(I34
I11
tp48
a(I34
I6
tp49
a(I34
I5
tp50
a(I34
I2
tp51
a(I33
I1
tp52
a(I32
I9
tp53
a(I32
I8
tp54
a(I29
I3
tp55
a(I33
I6
tp56
a(I33
I5
tp57
a(I28
I1
tp58
a(I28
I0
tp59
a(I29
I2
tp60
a(I29
I1
tp61
a(I33
I4
tp62
a(I34
I4
tp63
a(I33
I3
tp64
a(I34
I3
tp65
a(I35
I1
tp66
a(I30
I-3
tp67
a(I34
I1
tp68
a(I30
I-2
tp69
a(I34
I0
tp70
a(I31
I-3
tp71
a(I33
I0
tp72
a(I35
I0
tp73
a(I28
I-7
tp74
a(I35
I-1
tp75
a(I29
I-7
tp76
a(I30
I-6
tp77
a(I30
I-5
tp78
a(I31
I-6
tp79
a(I35
I-2
tp80
a(I31
I-5
tp81
a(I37
I-3
tp82
a(I39
I-5
tp83
a(I39
I-6
tp84
a(I38
I-5
tp85
a(I38
I-6
tp86
a(I31
I-7
tp87
a(I39
I-7
tp88
a(I32
I-7
tp89
a(I32
I-8
tp90
a(I39
I-8
tp91
a(I39
I-9
tp92
a(I32
I-9
tp93
a(I40
I-10
tp94
a(I32
I-10
tp95
a(I33
I-10
tp96
a(I40
I-11
tp97
a(I33
I-11
tp98
a(I34
I-11
tp99
a(I40
I-12
tp100
a(I34
I-10
tp101
a(I35
I-10
tp102
a(I41
I-13
tp103
a(I36
I-16
tp104
a(I40
I-13
tp105
a(I39
I-12
tp106
a(I32
I-12
tp107
a(I38
I-12
tp108
a(I33
I-12
tp109
a(I38
I-13
tp110
a(I32
I-13
tp111
a(I29
I-18
tp112
a(I38
I-14
tp113
a(I32
I-14
tp114
a(I33
I-14
tp115
a(I34
I-13
tp116
a(I39
I-14
tp117
a(I39
I-15
tp118
a(I34
I-14
tp119
a(I35
I-14
tp120
a(I34
I-15
tp121
a(I38
I-15
tp122
a(I31
I-22
tp123
a(I40
I-24
tp124
a(I40
I-25
tp125
a(I41
I-24
tp126
a(I42
I-24
tp127
a(I42
I-25
tp128
a(I43
I-24
tp129
a(I43
I-25
tp130
a(I44
I-25
tp131
a(I44
I-24
tp132
a(I40
I-26
tp133
a(I49
I-26
tp134
a(I47
I-26
tp135
a(I41
I-25
tp136
a(I34
I-27
tp137
a(I39
I-25
tp138
a(I32
I-20
tp139
a(I31
I-26
tp140
a(I31
I-25
tp141
a(I32
I-24
tp142
a(I29
I-23
tp143
a(I29
I-22
tp144
a(I30
I-23
tp145
a(I29
I-27
tp146
a(I28
I-26
tp147
a(I29
I-20
tp148
a(I30
I-24
tp149
a(I30
I-19
tp150
a(I31
I-19
tp151
a(I32
I-19
tp152
a(I30
I-22
tp153
a(I31
I-21
tp154
a(I32
I-21
tp155
a(I29
I-19
tp156
a(I34
I-12
tp157
a(I30
I-18
tp158
a(I29
I-12
tp159
a(I31
I-20
tp160
a(I36
I-14
tp161
a(I32
I-18
tp162
a(I35
I-13
tp163
a(I32
I-17
tp164
a(I27
I-18
tp165
a(I28
I-18
tp166
a(I30
I-16
tp167
a(I28
I-19
tp168
a(I31
I-18
tp169
a(I30
I-20
tp170
a(I29
I-17
tp171
a(I30
I-17
tp172
a(I31
I-10
tp173
a(I32
I-16
tp174
a(I31
I-17
tp175
a(I26
I-18
tp176
a(I28
I-17
tp177
a(I33
I-13
tp178
a(I26
I-17
tp179
a(I27
I-17
tp180
a(I24
I-17
tp181
a(I31
I-12
tp182
a(I25
I-12
tp183
a(I24
I-18
tp184
a(I30
I-10
tp185
a(I26
I-14
tp186
a(I28
I-16
tp187
a(I26
I-19
tp188
a(I23
I-14
tp189
a(I27
I-15
tp190
a(I25
I-19
tp191
a(I24
I-15
tp192
a(I27
I-16
tp193
a(I21
I-12
tp194
a(I27
I-7
tp195
a(I29
I-16
tp196
a(I22
I-11
tp197
a(I25
I-13
tp198
a(I23
I-17
tp199
a(I28
I-8
tp200
a(I28
I-10
tp201
a(I29
I-11
tp202
a(I30
I-12
tp203
a(I26
I-15
tp204
a(I21
I-11
tp205
a(I22
I-9
tp206
a(I34
I-9
tp207
a(I30
I-13
tp208
a(I28
I-9
tp209
a(I28
I-11
tp210
a(I22
I-6
tp211
a(I26
I-8
tp212
a(I30
I-11
tp213
a(I38
I-11
tp214
a(I29
I-10
tp215
a(I31
I-11
tp216
a.